target datalayout = "e-m:e-p270:32:32-p271:32:32-p272:64:64-i64:64-i128:128-f80:128-n8:16:32:64-S128"
target triple = "x86_64-pc-linux-gnu"

%"class.icu_77::SimpleFilteredSentenceBreakData" = type <{ ptr, %"class.icu_77::LocalPointer", %"class.icu_77::LocalPointer", %"struct.std::atomic", [4 x i8] }>
%"class.icu_77::LocalPointer" = type { %"class.icu_77::LocalPointerBase" }
%"class.icu_77::LocalPointerBase" = type { ptr }
%"struct.std::atomic" = type { %"struct.std::__atomic_base" }
%"struct.std::__atomic_base" = type { i32 }

@_ZTVN6icu_7731SimpleFilteredSentenceBreakDataE = unnamed_addr constant { [4 x ptr] } { [4 x ptr] [ptr null, ptr @_ZTIN6icu_7731SimpleFilteredSentenceBreakDataE, ptr @_ZN6icu_7731SimpleFilteredSentenceBreakDataD1Ev, ptr @_ZN6icu_7731SimpleFilteredSentenceBreakDataD0Ev] }, align 8

; Function Attrs: mustprogress nounwind uwtable
define linkonce_odr void @_ZN6icu_7716LocalPointerBaseINS_10UCharsTrieEED2Ev(ptr noundef nonnull align 8 dereferenceable(8) %0) unnamed_addr #1 comdat align 2 {
  %2 = alloca ptr, align 8
  store ptr %0, ptr %2, align 8, !tbaa !113
  ret void
}

; Function Attrs: mustprogress nounwind uwtable
define linkonce_odr void @_ZN6icu_7712LocalPointerINS_10UCharsTrieEED2Ev(ptr noundef nonnull align 8 dereferenceable(8) %0) unnamed_addr #1 comdat align 2 {
  %2 = alloca ptr, align 8
  store ptr %0, ptr %2, align 8, !tbaa !12
  %3 = load ptr, ptr %2, align 8
  %4 = getelementptr inbounds nuw %"class.icu_77::LocalPointerBase", ptr %3, i32 0, i32 0
  %5 = load ptr, ptr %4, align 8, !tbaa !14
  %6 = icmp eq ptr %5, null
  br i1 %6, label %8, label %7

7:                                                ; preds = %1
  call void @_ZN6icu_7710UCharsTrieD1Ev(ptr noundef nonnull align 8 dereferenceable(28) %5) #13
  call void @_ZN6icu_777UMemorydlEPv(ptr noundef %5) #13
  br label %8

8:                                                ; preds = %7, %1
  call void @_ZN6icu_7716LocalPointerBaseINS_10UCharsTrieEED2Ev(ptr noundef nonnull align 8 dereferenceable(8) %3) #13
  ret void
}

; Function Attrs: mustprogress nounwind uwtable
define void @_ZN6icu_7731SimpleFilteredSentenceBreakDataD2Ev(ptr noundef nonnull align 8 dereferenceable(28) %0) unnamed_addr #1 align 2 {
  %2 = alloca ptr, align 8
  store ptr %0, ptr %2, align 8, !tbaa !8
  %3 = load ptr, ptr %2, align 8
  store ptr getelementptr inbounds inrange(-16, 16) ({ [4 x ptr] }, ptr @_ZTVN6icu_7731SimpleFilteredSentenceBreakDataE, i32 0, i32 0, i32 2), ptr %3, align 8, !tbaa !10
  %4 = getelementptr inbounds nuw %"class.icu_77::SimpleFilteredSentenceBreakData", ptr %3, i32 0, i32 2
  call void @_ZN6icu_7712LocalPointerINS_10UCharsTrieEED2Ev(ptr noundef nonnull align 8 dereferenceable(8) %4) #13
  %5 = getelementptr inbounds nuw %"class.icu_77::SimpleFilteredSentenceBreakData", ptr %3, i32 0, i32 1
  call void @_ZN6icu_7712LocalPointerINS_10UCharsTrieEED2Ev(ptr noundef nonnull align 8 dereferenceable(8) %5) #13
  ret void
}