; Function Attrs: mustprogress nounwind uwtable
define void @_ZN6icu_7731SimpleFilteredSentenceBreakDataD2Ev(ptr noundef nonnull align 8 captures(none) dereferenceable(28) initializes((0, 8)) %0) unnamed_addr #1 align 2 {
  store ptr getelementptr inbounds nuw inrange(-16, 16) (i8, ptr @_ZTVN6icu_7731SimpleFilteredSentenceBreakDataE, i64 16), ptr %0, align 8, !tbaa !3
  %2 = getelementptr inbounds nuw i8, ptr %0, i64 16
  %3 = load ptr, ptr %2, align 8, !tbaa !6
  %4 = icmp eq ptr %3, null
  br i1 %4, label %_ZN6icu_7712LocalPointerINS_10UCharsTrieEED2Ev.exit, label %5

5:                                                ; preds = %1
  tail call void @_ZN6icu_7710UCharsTrieD1Ev(ptr noundef nonnull align 8 dereferenceable(28) %3) #14
  tail call void @_ZN6icu_777UMemorydlEPv(ptr noundef nonnull %3) #14
  br label %_ZN6icu_7712LocalPointerINS_10UCharsTrieEED2Ev.exit

_ZN6icu_7712LocalPointerINS_10UCharsTrieEED2Ev.exit: ; preds = %1, %5
  %6 = getelementptr inbounds nuw i8, ptr %0, i64 8
  %7 = load ptr, ptr %6, align 8, !tbaa !6
  %8 = icmp eq ptr %7, null
  br i1 %8, label %_ZN6icu_7712LocalPointerINS_10UCharsTrieEED2Ev.exit1, label %9

9:                                                ; preds = %_ZN6icu_7712LocalPointerINS_10UCharsTrieEED2Ev.exit
  tail call void @_ZN6icu_7710UCharsTrieD1Ev(ptr noundef nonnull align 8 dereferenceable(28) %7) #14
  tail call void @_ZN6icu_777UMemorydlEPv(ptr noundef nonnull %7) #14
  br label %_ZN6icu_7712LocalPointerINS_10UCharsTrieEED2Ev.exit1

_ZN6icu_7712LocalPointerINS_10UCharsTrieEED2Ev.exit1: ; preds = %_ZN6icu_7712LocalPointerINS_10UCharsTrieEED2Ev.exit, %9
  ret void
}